target datalayout = "e-m:e-p270:32:32-p271:32:32-p272:64:64-i64:64-i128:128-f80:128-n8:16:32:64-S128"
target triple = "x86_64-pc-linux-gnu"

@.str = private unnamed_addr constant [8 x i8] c"blake2b\00", align 1

; Function Attrs: nounwind ssp uwtable
define dso_local i64 @crypto_generichash_bytes_min() #0 {
  ret i64 16
}

; Function Attrs: nounwind ssp uwtable
define dso_local i64 @crypto_generichash_bytes_max() #0 {
  ret i64 64
}

; Function Attrs: nounwind ssp uwtable
define dso_local i64 @crypto_generichash_bytes() #0 {
  ret i64 32
}

; Function Attrs: nounwind ssp uwtable
define dso_local i64 @crypto_generichash_keybytes_min() #0 {
  ret i64 16
}

; Function Attrs: nounwind ssp uwtable
define dso_local i64 @crypto_generichash_keybytes_max() #0 {
  ret i64 64
}

; Function Attrs: nounwind ssp uwtable
define dso_local i64 @crypto_generichash_keybytes() #0 {
  ret i64 32
}

; Function Attrs: nounwind ssp uwtable
define dso_local ptr @crypto_generichash_primitive() #0 {
  ret ptr @.str
}

; Function Attrs: nounwind ssp uwtable
define dso_local i64 @crypto_generichash_statebytes() #0 {
  ret i64 384
}

; Function Attrs: nounwind ssp uwtable
define dso_local i32 @crypto_generichash(ptr noundef nonnull %0, i64 noundef %1, ptr noundef %2, i64 noundef %3, ptr noundef %4, i64 noundef %5) #0 {
  %7 = alloca ptr, align 8
  %8 = alloca i64, align 8
  %9 = alloca ptr, align 8
  %10 = alloca i64, align 8
  %11 = alloca ptr, align 8
  %12 = alloca i64, align 8
  store ptr %0, ptr %7, align 8
  store i64 %1, ptr %8, align 8
  store ptr %2, ptr %9, align 8
  store i64 %3, ptr %10, align 8
  store ptr %4, ptr %11, align 8
  store i64 %5, ptr %12, align 8
  %13 = load ptr, ptr %7, align 8
  %14 = load i64, ptr %8, align 8
  %15 = load ptr, ptr %9, align 8
  %16 = load i64, ptr %10, align 8
  %17 = load ptr, ptr %11, align 8
  %18 = load i64, ptr %12, align 8
  %19 = call i32 @crypto_generichash_blake2b(ptr noundef %13, i64 noundef %14, ptr noundef %15, i64 noundef %16, ptr noundef %17, i64 noundef %18)
  ret i32 %19
}

declare i32 @crypto_generichash_blake2b(ptr noundef, i64 noundef, ptr noundef, i64 noundef, ptr noundef, i64 noundef) #1

; Function Attrs: nounwind ssp uwtable
define dso_local i32 @crypto_generichash_init(ptr noundef nonnull %0, ptr noundef %1, i64 noundef %2, i64 noundef %3) #0 {
  %5 = alloca ptr, align 8
  %6 = alloca ptr, align 8
  %7 = alloca i64, align 8
  %8 = alloca i64, align 8
  store ptr %0, ptr %5, align 8
  store ptr %1, ptr %6, align 8
  store i64 %2, ptr %7, align 8
  store i64 %3, ptr %8, align 8
  %9 = load ptr, ptr %5, align 8
  %10 = load ptr, ptr %6, align 8
  %11 = load i64, ptr %7, align 8
  %12 = load i64, ptr %8, align 8
  %13 = call i32 @crypto_generichash_blake2b_init(ptr noundef %9, ptr noundef %10, i64 noundef %11, i64 noundef %12)
  ret i32 %13
}

declare i32 @crypto_generichash_blake2b_init(ptr noundef, ptr noundef, i64 noundef, i64 noundef) #1

; Function Attrs: nounwind ssp uwtable
define dso_local i32 @crypto_generichash_update(ptr noundef nonnull %0, ptr noundef %1, i64 noundef %2) #0 {
  %4 = alloca ptr, align 8
  %5 = alloca ptr, align 8
  %6 = alloca i64, align 8
  store ptr %0, ptr %4, align 8
  store ptr %1, ptr %5, align 8
  store i64 %2, ptr %6, align 8
  %7 = load ptr, ptr %4, align 8
  %8 = load ptr, ptr %5, align 8
  %9 = load i64, ptr %6, align 8
  %10 = call i32 @crypto_generichash_blake2b_update(ptr noundef %7, ptr noundef %8, i64 noundef %9)
  ret i32 %10
}

declare i32 @crypto_generichash_blake2b_update(ptr noundef, ptr noundef, i64 noundef) #1

; Function Attrs: nounwind ssp uwtable
define dso_local i32 @crypto_generichash_final(ptr noundef nonnull %0, ptr noundef nonnull %1, i64 noundef %2) #0 {
  %4 = alloca ptr, align 8
  %5 = alloca ptr, align 8
  %6 = alloca i64, align 8
  store ptr %0, ptr %4, align 8
  store ptr %1, ptr %5, align 8
  store i64 %2, ptr %6, align 8
  %7 = load ptr, ptr %4, align 8
  %8 = load ptr, ptr %5, align 8
  %9 = load i64, ptr %6, align 8
  %10 = call i32 @crypto_generichash_blake2b_final(ptr noundef %7, ptr noundef %8, i64 noundef %9)
  ret i32 %10
}

declare i32 @crypto_generichash_blake2b_final(ptr noundef, ptr noundef, i64 noundef) #1

; Function Attrs: nounwind ssp uwtable
define dso_local void @crypto_generichash_keygen(ptr noundef nonnull %0) #0 {
  %2 = alloca ptr, align 8
  store ptr %0, ptr %2, align 8
  %3 = load ptr, ptr %2, align 8
  call void @randombytes_buf(ptr noundef %3, i64 noundef 32)
  ret void
}

declare void @randombytes_buf(ptr noundef, i64 noundef) #1


!llvm.module.flags = !{!0, !1, !2, !3}

!0 = !{i32 1, !"wchar_size", i32 4}
!1 = !{i32 8, !"PIC Level", i32 2}
!2 = !{i32 7, !"PIE Level", i32 2}
!3 = !{i32 7, !"uwtable", i32 2}
