; ModuleID = 'bench/libsodium/original/crypto_generichash.ll'
source_filename = "bench/libsodium/original/crypto_generichash.ll"
target datalayout = "e-m:e-p270:32:32-p271:32:32-p272:64:64-i64:64-i128:128-f80:128-n8:16:32:64-S128"
target triple = "x86_64-pc-linux-gnu"

@.str = private unnamed_addr constant [8 x i8] c"blake2b\00", align 1

; Function Attrs: mustprogress nofree norecurse nosync nounwind ssp willreturn memory(none) uwtable
define dso_local noundef i64 @crypto_generichash_bytes_min() local_unnamed_addr #0 {
  ret i64 16
}

; Function Attrs: mustprogress nofree norecurse nosync nounwind ssp willreturn memory(none) uwtable
define dso_local noundef i64 @crypto_generichash_bytes_max() local_unnamed_addr #0 {
  ret i64 64
}

; Function Attrs: mustprogress nofree norecurse nosync nounwind ssp willreturn memory(none) uwtable
define dso_local noundef i64 @crypto_generichash_bytes() local_unnamed_addr #0 {
  ret i64 32
}

; Function Attrs: mustprogress nofree norecurse nosync nounwind ssp willreturn memory(none) uwtable
define dso_local noundef i64 @crypto_generichash_keybytes_min() local_unnamed_addr #0 {
  ret i64 16
}

; Function Attrs: mustprogress nofree norecurse nosync nounwind ssp willreturn memory(none) uwtable
define dso_local noundef i64 @crypto_generichash_keybytes_max() local_unnamed_addr #0 {
  ret i64 64
}

; Function Attrs: mustprogress nofree norecurse nosync nounwind ssp willreturn memory(none) uwtable
define dso_local noundef i64 @crypto_generichash_keybytes() local_unnamed_addr #0 {
  ret i64 32
}

; Function Attrs: mustprogress nofree norecurse nosync nounwind ssp willreturn memory(none) uwtable
define dso_local noundef nonnull ptr @crypto_generichash_primitive() local_unnamed_addr #0 {
  ret ptr @.str
}

; Function Attrs: mustprogress nofree norecurse nosync nounwind ssp willreturn memory(none) uwtable
define dso_local noundef i64 @crypto_generichash_statebytes() local_unnamed_addr #0 {
  ret i64 384
}

; Function Attrs: nounwind ssp uwtable
define dso_local i32 @crypto_generichash(ptr noundef nonnull %0, i64 noundef %1, ptr noundef %2, i64 noundef %3, ptr noundef %4, i64 noundef %5) local_unnamed_addr #1 {
  %7 = tail call i32 @crypto_generichash_blake2b(ptr noundef nonnull %0, i64 noundef %1, ptr noundef %2, i64 noundef %3, ptr noundef %4, i64 noundef %5) #3
  ret i32 %7
}

declare i32 @crypto_generichash_blake2b(ptr noundef, i64 noundef, ptr noundef, i64 noundef, ptr noundef, i64 noundef) local_unnamed_addr #2

; Function Attrs: nounwind ssp uwtable
define dso_local i32 @crypto_generichash_init(ptr noundef nonnull %0, ptr noundef %1, i64 noundef %2, i64 noundef %3) local_unnamed_addr #1 {
  %5 = tail call i32 @crypto_generichash_blake2b_init(ptr noundef nonnull %0, ptr noundef %1, i64 noundef %2, i64 noundef %3) #3
  ret i32 %5
}

declare i32 @crypto_generichash_blake2b_init(ptr noundef, ptr noundef, i64 noundef, i64 noundef) local_unnamed_addr #2

; Function Attrs: nounwind ssp uwtable
define dso_local i32 @crypto_generichash_update(ptr noundef nonnull %0, ptr noundef %1, i64 noundef %2) local_unnamed_addr #1 {
  %4 = tail call i32 @crypto_generichash_blake2b_update(ptr noundef nonnull %0, ptr noundef %1, i64 noundef %2) #3
  ret i32 %4
}

declare i32 @crypto_generichash_blake2b_update(ptr noundef, ptr noundef, i64 noundef) local_unnamed_addr #2

; Function Attrs: nounwind ssp uwtable
define dso_local i32 @crypto_generichash_final(ptr noundef nonnull %0, ptr noundef nonnull %1, i64 noundef %2) local_unnamed_addr #1 {
  %4 = tail call i32 @crypto_generichash_blake2b_final(ptr noundef nonnull %0, ptr noundef nonnull %1, i64 noundef %2) #3
  ret i32 %4
}

declare i32 @crypto_generichash_blake2b_final(ptr noundef, ptr noundef, i64 noundef) local_unnamed_addr #2

; Function Attrs: nounwind ssp uwtable
define dso_local void @crypto_generichash_keygen(ptr noundef nonnull %0) local_unnamed_addr #1 {
  tail call void @randombytes_buf(ptr noundef nonnull %0, i64 noundef 32) #3
  ret void
}

declare void @randombytes_buf(ptr noundef, i64 noundef) local_unnamed_addr #2


!llvm.module.flags = !{!0, !1, !2, !3}

!0 = !{i32 1, !"wchar_size", i32 4}
!1 = !{i32 8, !"PIC Level", i32 2}
!2 = !{i32 7, !"PIE Level", i32 2}
!3 = !{i32 7, !"uwtable", i32 2}
